Certificate:
    Data:
        Version: 3 (0x2)
        Serial Number:
            11:c6:61:9d:74:6a:d1:76:e9:7f:f7:75:23:aa:d9:2e
        Signature Algorithm: sha256WithRSAEncryption
        Issuer: CN=client
        Validity
            Not Before: Dec 25 13:26:05 2023 GMT
            Not After : Mar 29 13:26:05 2026 GMT
        Subject: CN=client
        Subject Public Key Info:
            Public Key Algorithm: rsaEncryption
                RSA Public-Key: (2048 bit)
                Modulus:
                    00:96:5e:fa:67:0e:50:c4:68:7a:fd:7e:87:67:aa:
                    ff:e7:ff:27:5b:8a:bd:70:14:79:74:53:5e:3e:c9:
                    06:15:9b:8f:71:0a:6f:e5:83:68:85:79:28:8c:b1:
                    04:67:24:9b:c6:15:67:42:ba:91:d1:70:85:56:4f:
                    1b:4a:10:1b:67:49:2f:45:eb:28:95:ce:5b:04:bd:
                    dc:3b:ee:9c:de:4b:32:5f:6e:c2:70:04:ac:ae:9d:
                    a1:70:bc:b7:33:1d:cb:ad:89:3b:fa:8a:11:f0:aa:
                    bd:89:22:35:ec:a2:e1:c7:56:df:6c:69:b8:0e:7d:
                    a0:84:04:d2:89:c9:d4:bc:57:00:23:5f:9d:fd:5c:
                    92:b1:20:27:c9:90:eb:98:2d:5b:4c:0f:45:3a:ca:
                    54:23:2c:26:bd:06:82:7b:13:f9:10:0d:f8:25:72:
                    3c:6e:ba:e4:d7:6d:8a:62:d6:b9:cd:c6:f8:47:f2:
                    47:4b:9d:dd:47:d5:9f:4d:02:f9:7c:cd:b0:ee:be:
                    43:3b:ac:de:02:7c:ae:df:1e:76:44:9b:46:e7:44:
                    e8:1b:97:af:df:4a:24:92:10:82:87:51:19:23:4b:
                    53:e8:bb:16:f0:ec:42:60:a0:10:af:aa:7e:4e:9b:
                    29:6e:92:2d:3d:b9:19:30:58:f6:7b:5c:23:4d:15:
                    4a:8f
                Exponent: 65537 (0x10001)
        X509v3 extensions:
            X509v3 Basic Constraints: 
                CA:FALSE
            X509v3 Subject Key Identifier: 
                74:B4:A3:5D:28:93:BF:5C:09:24:93:53:3A:44:DD:96:58:71:CA:C4
            X509v3 Authority Key Identifier: 
                keyid:FA:6A:4C:1D:89:A3:BD:D6:66:B0:1F:11:CE:76:98:2A:29:FF:E9:63
                DirName:/CN=client
                serial:20:3C:AC:4B:41:9E:A7:0E:CC:24:C7:A1:3B:CE:65:38:33:78:B1:A7

            X509v3 Extended Key Usage: 
                TLS Web Client Authentication
            X509v3 Key Usage: 
                Digital Signature
    Signature Algorithm: sha256WithRSAEncryption
         99:76:2b:08:3c:62:d2:c1:37:28:73:9d:78:30:8e:dc:1e:d6:
         8f:67:e7:0b:e1:14:44:fe:c1:71:86:7f:dc:34:25:4b:70:f5:
         73:59:53:0e:fc:46:0c:e6:9e:79:03:67:8a:a5:2e:92:a9:e9:
         a6:a8:e1:64:af:87:c6:83:c8:43:a2:07:2c:ae:14:ea:c2:da:
         61:b7:f1:96:17:1e:b5:d5:99:2a:75:f3:44:80:24:c7:0a:bd:
         00:ee:5f:56:30:62:19:bb:1a:2d:d6:3d:88:8b:90:53:19:61:
         cc:b3:29:3f:2c:75:d3:66:d4:5a:6a:5a:e6:62:3b:a7:6b:a1:
         ed:8d:55:80:b7:91:ec:50:9b:0a:fc:45:5f:43:a8:07:4f:b0:
         fb:fc:d6:40:66:d6:1c:2c:6a:b1:29:88:5c:37:51:1d:5a:07:
         a7:15:f8:a7:d8:37:3f:2a:fe:99:0b:46:cb:26:31:40:97:f6:
         ec:07:a9:f8:75:8a:1e:cb:04:01:9b:f3:b7:29:43:57:af:8b:
         ca:e7:b6:33:32:8d:67:5d:79:cb:24:c1:59:04:6c:0e:2a:ca:
         4b:a8:e0:5a:a4:1d:9b:8b:33:47:af:35:31:da:d2:21:69:a7:
         9a:84:ad:f2:8f:f9:03:9a:93:52:5f:b1:88:2e:d8:ab:b3:e0:
         10:df:6a:3f
-----BEGIN CERTIFICATE-----
MIIDSjCCAjKgAwIBAgIQEcZhnXRq0Xbpf/d1I6rZLjANBgkqhkiG9w0BAQsFADAR
MQ8wDQYDVQQDDAZjbGllbnQwHhcNMjMxMjI1MTMyNjA1WhcNMjYwMzI5MTMyNjA1
WjARMQ8wDQYDVQQDDAZjbGllbnQwggEiMA0GCSqGSIb3DQEBAQUAA4IBDwAwggEK
AoIBAQCWXvpnDlDEaHr9fodnqv/n/ydbir1wFHl0U14+yQYVm49xCm/lg2iFeSiM
sQRnJJvGFWdCupHRcIVWTxtKEBtnSS9F6yiVzlsEvdw77pzeSzJfbsJwBKyunaFw
vLczHcutiTv6ihHwqr2JIjXsouHHVt9sabgOfaCEBNKJydS8VwAjX539XJKxICfJ
kOuYLVtMD0U6ylQjLCa9BoJ7E/kQDfglcjxuuuTXbYpi1rnNxvhH8kdLnd1H1Z9N
Avl8zbDuvkM7rN4CfK7fHnZEm0bnROgbl6/fSiSSEIKHURkjS1Pouxbw7EJgoBCv
qn5Omyluki09uRkwWPZ7XCNNFUqPAgMBAAGjgZ0wgZowCQYDVR0TBAIwADAdBgNV
HQ4EFgQUdLSjXSiTv1wJJJNTOkTdllhxysQwTAYDVR0jBEUwQ4AU+mpMHYmjvdZm
sB8RznaYKin/6WOhFaQTMBExDzANBgNVBAMMBmNsaWVudIIUIDysS0Gepw7MJMeh
O85lODN4sacwEwYDVR0lBAwwCgYIKwYBBQUHAwIwCwYDVR0PBAQDAgeAMA0GCSqG
SIb3DQEBCwUAA4IBAQCZdisIPGLSwTcoc514MI7cHtaPZ+cL4RRE/sFxhn/cNCVL
cPVzWVMO/EYM5p55A2eKpS6SqemmqOFkr4fGg8hDogcsrhTqwtpht/GWFx611Zkq
dfNEgCTHCr0A7l9WMGIZuxot1j2Ii5BTGWHMsyk/LHXTZtRaalrmYjuna6HtjVWA
t5HsUJsK/EVfQ6gHT7D7/NZAZtYcLGqxKYhcN1EdWgenFfin2Dc/Kv6ZC0bLJjFA
l/bsB6n4dYoeywQBm/O3KUNXr4vK57YzMo1nXXnLJMFZBGwOKspLqOBapB2bizNH
rzUx2tIhaaeahK3yj/kDmpNSX7GILtirs+AQ32o/
-----END CERTIFICATE-----
