Certificate:
    Data:
        Version: 3 (0x2)
        Serial Number:
            37:df:8a:8f:8c:7e:74:5a:c8:c9:45:f4:e7:5f:2d:4c
        Signature Algorithm: sha256WithRSAEncryption
        Issuer: CN=client
        Validity
            Not Before: Dec 25 13:25:56 2023 GMT
            Not After : Mar 29 13:25:56 2026 GMT
        Subject: CN=172.27.12.169
        Subject Public Key Info:
            Public Key Algorithm: rsaEncryption
                RSA Public-Key: (2048 bit)
                Modulus:
                    00:d5:ac:bf:b3:ef:03:22:ff:b8:b3:eb:d3:43:ec:
                    01:eb:e0:41:7b:c7:15:68:5d:88:b4:5f:e2:60:bd:
                    66:e4:f9:66:40:2e:d0:9a:6f:50:63:aa:14:38:92:
                    ee:85:9b:94:7a:8a:a9:d6:1b:8d:09:45:ed:8e:c1:
                    f9:70:91:0b:81:4b:dd:e2:88:52:97:f2:bd:f8:5c:
                    43:7e:e2:a7:20:ea:4c:96:e7:20:11:3d:5b:cb:ad:
                    50:d0:ca:9c:c4:96:5b:31:06:54:e0:c5:8a:40:45:
                    b5:1d:9b:75:5e:72:2a:85:47:cd:6d:e8:11:8a:f6:
                    a1:e0:07:94:33:59:c8:3a:58:61:da:c4:4a:58:f3:
                    99:41:fe:7a:c3:23:4b:31:ba:91:91:33:df:b2:0a:
                    97:15:c8:81:11:50:ed:69:18:16:3d:8d:19:30:85:
                    ec:53:be:93:df:51:f0:4c:0c:ee:79:71:03:bb:2b:
                    be:11:09:97:b4:55:17:1c:03:41:ef:c9:55:85:8a:
                    14:d8:ed:8c:7a:fc:98:19:ac:ef:74:19:c5:67:0b:
                    dd:2c:bc:a3:52:4f:29:39:14:4f:4c:a1:a5:d8:69:
                    74:11:9f:35:68:e3:e3:67:f8:6d:a1:6f:e0:1e:51:
                    9d:95:5e:9b:19:6c:6d:88:a9:63:f2:1b:4e:f1:6d:
                    db:35
                Exponent: 65537 (0x10001)
        X509v3 extensions:
            X509v3 Basic Constraints: 
                CA:FALSE
            X509v3 Subject Key Identifier: 
                D0:0B:0F:27:63:E0:14:CF:45:9B:E3:C9:E4:A4:3E:3F:97:94:C5:16
            X509v3 Authority Key Identifier: 
                keyid:FA:6A:4C:1D:89:A3:BD:D6:66:B0:1F:11:CE:76:98:2A:29:FF:E9:63
                DirName:/CN=client
                serial:20:3C:AC:4B:41:9E:A7:0E:CC:24:C7:A1:3B:CE:65:38:33:78:B1:A7

            X509v3 Extended Key Usage: 
                TLS Web Server Authentication
            X509v3 Key Usage: 
                Digital Signature, Key Encipherment
            X509v3 Subject Alternative Name: 
                IP Address:172.27.12.169
    Signature Algorithm: sha256WithRSAEncryption
         e1:53:73:5a:67:d6:f9:c1:eb:f6:3e:2f:6b:d7:77:0b:5d:ed:
         9b:9c:8c:20:8a:5a:2f:29:cb:3e:4a:f4:a9:19:76:5e:ee:38:
         4c:5a:40:2b:8c:62:b2:19:74:84:4e:bb:e8:f1:b8:64:b5:87:
         87:86:39:7c:5b:7f:2c:88:a7:a5:ee:7c:c5:a2:6b:ff:fd:27:
         45:54:18:5d:49:37:bf:fa:e1:06:e4:53:e0:ed:0d:b9:74:11:
         e5:16:e1:61:3e:c4:91:a9:f9:25:ae:04:66:8d:23:ff:5f:24:
         65:d9:07:28:e6:e3:32:03:07:93:ac:0a:4e:e7:72:df:12:25:
         6f:d2:88:39:d8:25:6d:6f:78:fc:b2:df:40:75:b9:8b:fb:52:
         25:99:6a:25:0a:e5:49:c1:16:f2:db:32:b0:d3:ec:af:9f:12:
         94:53:ce:fa:14:2e:41:4b:ba:26:2f:05:c1:17:d9:17:3f:0c:
         e3:06:19:38:ab:d0:f6:46:e7:2d:82:b3:6f:68:03:6b:e8:5a:
         b5:2f:de:dd:8c:15:ec:a8:e7:59:c8:20:89:27:33:93:8d:2d:
         f4:8c:ff:18:a7:0a:28:45:83:b0:c2:6f:61:56:cf:05:7d:af:
         38:4f:a1:4d:54:0e:4e:7b:48:7d:c6:57:cc:fe:df:e1:9e:50:
         91:e6:29:af
-----BEGIN CERTIFICATE-----
MIIDYjCCAkqgAwIBAgIQN9+Kj4x+dFrIyUX0518tTDANBgkqhkiG9w0BAQsFADAR
MQ8wDQYDVQQDDAZjbGllbnQwHhcNMjMxMjI1MTMyNTU2WhcNMjYwMzI5MTMyNTU2
WjAYMRYwFAYDVQQDDA0xNzIuMjcuMTIuMTY5MIIBIjANBgkqhkiG9w0BAQEFAAOC
AQ8AMIIBCgKCAQEA1ay/s+8DIv+4s+vTQ+wB6+BBe8cVaF2ItF/iYL1m5PlmQC7Q
mm9QY6oUOJLuhZuUeoqp1huNCUXtjsH5cJELgUvd4ohSl/K9+FxDfuKnIOpMlucg
ET1by61Q0MqcxJZbMQZU4MWKQEW1HZt1XnIqhUfNbegRivah4AeUM1nIOlhh2sRK
WPOZQf56wyNLMbqRkTPfsgqXFciBEVDtaRgWPY0ZMIXsU76T31HwTAzueXEDuyu+
EQmXtFUXHANB78lVhYoU2O2MevyYGazvdBnFZwvdLLyjUk8pORRPTKGl2Gl0EZ81
aOPjZ/htoW/gHlGdlV6bGWxtiKlj8htO8W3bNQIDAQABo4GuMIGrMAkGA1UdEwQC
MAAwHQYDVR0OBBYEFNALDydj4BTPRZvjyeSkPj+XlMUWMEwGA1UdIwRFMEOAFPpq
TB2Jo73WZrAfEc52mCop/+ljoRWkEzARMQ8wDQYDVQQDDAZjbGllbnSCFCA8rEtB
nqcOzCTHoTvOZTgzeLGnMBMGA1UdJQQMMAoGCCsGAQUFBwMBMAsGA1UdDwQEAwIF
oDAPBgNVHREECDAGhwSsGwypMA0GCSqGSIb3DQEBCwUAA4IBAQDhU3NaZ9b5wev2
Pi9r13cLXe2bnIwgilovKcs+SvSpGXZe7jhMWkArjGKyGXSETrvo8bhktYeHhjl8
W38siKel7nzFomv//SdFVBhdSTe/+uEG5FPg7Q25dBHlFuFhPsSRqfklrgRmjSP/
XyRl2Qco5uMyAweTrApO53LfEiVv0og52CVtb3j8st9AdbmL+1IlmWolCuVJwRby
2zKw0+yvnxKUU876FC5BS7omLwXBF9kXPwzjBhk4q9D2RuctgrNvaANr6Fq1L97d
jBXsqOdZyCCJJzOTjS30jP8YpwooRYOwwm9hVs8Ffa84T6FNVA5Oe0h9xlfM/t/h
nlCR5imv
-----END CERTIFICATE-----
